; Function Attrs: nounwind uwtable
define internal ptr @s_repr(ptr noundef readonly captures(none) %0) #0 {
  %2 = getelementptr inbounds nuw i8, ptr %0, i64 40
  %3 = load ptr, ptr %2, align 8, !tbaa !71
  %4 = getelementptr inbounds nuw i8, ptr %3, i64 32
  %5 = getelementptr i8, ptr %3, i64 16
  %.val9 = load i64, ptr %5, align 8, !tbaa !32
  %6 = tail call ptr @PyUnicode_FromStringAndSize(ptr noundef nonnull %4, i64 noundef %.val9) #7
  %7 = icmp eq ptr %6, null
  br i1 %7, label %Py_DECREF.exit, label %8

8:                                                ; preds = %1
  %9 = getelementptr i8, ptr %0, i64 8
  %.val = load ptr, ptr %9, align 8, !tbaa !24
  %10 = tail call ptr @_PyType_Name(ptr noundef %.val) #7
  %11 = tail call ptr (ptr, ...) @PyUnicode_FromFormat(ptr noundef nonnull @.str.35, ptr noundef %10, ptr noundef nonnull %6) #7
  %12 = load i32, ptr %6, align 8, !tbaa !18
  %.not.i = icmp sgt i32 %12, -1
  br i1 %.not.i, label %13, label %Py_DECREF.exit

13:                                               ; preds = %8
  %14 = add nsw i32 %12, -1
  store i32 %14, ptr %6, align 8, !tbaa !18
  %15 = icmp eq i32 %14, 0
  br i1 %15, label %16, label %Py_DECREF.exit

16:                                               ; preds = %13
  tail call void @_Py_Dealloc(ptr noundef nonnull %6) #7
  br label %Py_DECREF.exit

Py_DECREF.exit:                                   ; preds = %16, %13, %8, %1
  %.0 = phi ptr [ null, %1 ], [ %11, %8 ], [ %11, %13 ], [ %11, %16 ]
  ret ptr %.0
}